target datalayout = "e-m:e-p270:32:32-p271:32:32-p272:64:64-i64:64-i128:128-f80:128-n8:16:32:64-S128"
target triple = "x86_64-pc-linux-gnu"

%struct.AVFilterContext = type { ptr, ptr, ptr, ptr, ptr, i32, ptr, ptr, i32, ptr, ptr, i32, i32, ptr, ptr, ptr, ptr, i32, ptr, i32, i32 }
%struct.DeflickerContext = type { ptr, i32, i32, i32, i32, i32, i32, [4 x i32], [4 x i32], ptr, [129 x float], [129 x float], %struct.FFBufQueue, i32, ptr, ptr, ptr }
%struct.FFBufQueue = type { [129 x ptr], i16, i16 }

; Function Attrs: alwaysinline nounwind willreturn memory(none) uwtable
define internal i32 @av_clip_c(i32 noundef %0, i32 noundef %1, i32 noundef %2) #9 {
  %4 = alloca i32, align 4
  %5 = alloca i32, align 4
  %6 = alloca i32, align 4
  %7 = alloca i32, align 4
  store i32 %0, ptr %5, align 4, !tbaa !54
  store i32 %1, ptr %6, align 4, !tbaa !54
  store i32 %2, ptr %7, align 4, !tbaa !54
  %8 = load i32, ptr %5, align 4, !tbaa !54
  %9 = load i32, ptr %6, align 4, !tbaa !54
  %10 = icmp slt i32 %8, %9
  br i1 %10, label %11, label %13

11:                                               ; preds = %3
  %12 = load i32, ptr %6, align 4, !tbaa !54
  store i32 %12, ptr %4, align 4
  br label %21

13:                                               ; preds = %3
  %14 = load i32, ptr %5, align 4, !tbaa !54
  %15 = load i32, ptr %7, align 4, !tbaa !54
  %16 = icmp sgt i32 %14, %15
  br i1 %16, label %17, label %19

17:                                               ; preds = %13
  %18 = load i32, ptr %7, align 4, !tbaa !54
  store i32 %18, ptr %4, align 4
  br label %21

19:                                               ; preds = %13
  %20 = load i32, ptr %5, align 4, !tbaa !54
  store i32 %20, ptr %4, align 4
  br label %21

21:                                               ; preds = %19, %17, %11
  %22 = load i32, ptr %4, align 4
  ret i32 %22
}

; Function Attrs: nounwind uwtable
define internal i32 @deflicker16(ptr noundef %0, ptr noundef %1, i64 noundef %2, ptr noundef %3, i64 noundef %4, i32 noundef %5, i32 noundef %6, float noundef %7) #1 {
  %9 = alloca ptr, align 8
  %10 = alloca ptr, align 8
  %11 = alloca i64, align 8
  %12 = alloca ptr, align 8
  %13 = alloca i64, align 8
  %14 = alloca i32, align 4
  %15 = alloca i32, align 4
  %16 = alloca float, align 4
  %17 = alloca ptr, align 8
  %18 = alloca ptr, align 8
  %19 = alloca ptr, align 8
  %20 = alloca i32, align 4
  %21 = alloca i32, align 4
  %22 = alloca i32, align 4
  store ptr %0, ptr %9, align 8, !tbaa !4
  store ptr %1, ptr %10, align 8, !tbaa !53
  store i64 %2, ptr %11, align 8, !tbaa !78
  store ptr %3, ptr %12, align 8, !tbaa !53
  store i64 %4, ptr %13, align 8, !tbaa !78
  store i32 %5, ptr %14, align 4, !tbaa !54
  store i32 %6, ptr %15, align 4, !tbaa !54
  store float %7, ptr %16, align 4, !tbaa !46
  call void @llvm.lifetime.start.p0(i64 8, ptr %17) #13
  %23 = load ptr, ptr %9, align 8, !tbaa !4
  %24 = getelementptr inbounds nuw %struct.AVFilterContext, ptr %23, i32 0, i32 9
  %25 = load ptr, ptr %24, align 8, !tbaa !9
  store ptr %25, ptr %17, align 8, !tbaa !22
  call void @llvm.lifetime.start.p0(i64 8, ptr %18) #13
  %26 = load ptr, ptr %10, align 8, !tbaa !53
  store ptr %26, ptr %18, align 8, !tbaa !85
  call void @llvm.lifetime.start.p0(i64 8, ptr %19) #13
  %27 = load ptr, ptr %12, align 8, !tbaa !53
  store ptr %27, ptr %19, align 8, !tbaa !85
  call void @llvm.lifetime.start.p0(i64 4, ptr %20) #13
  %28 = load ptr, ptr %17, align 8, !tbaa !22
  %29 = getelementptr inbounds nuw %struct.DeflickerContext, ptr %28, i32 0, i32 5
  %30 = load i32, ptr %29, align 8, !tbaa !56
  %31 = shl i32 1, %30
  %32 = sub nsw i32 %31, 1
  store i32 %32, ptr %20, align 4, !tbaa !54
  call void @llvm.lifetime.start.p0(i64 4, ptr %21) #13
  call void @llvm.lifetime.start.p0(i64 4, ptr %22) #13
  store i32 0, ptr %22, align 4, !tbaa !54
  br label %33

33:                                               ; preds = %72, %8
  %34 = load i32, ptr %22, align 4, !tbaa !54
  %35 = load i32, ptr %15, align 4, !tbaa !54
  %36 = icmp slt i32 %34, %35
  br i1 %36, label %37, label %75

37:                                               ; preds = %33
  store i32 0, ptr %21, align 4, !tbaa !54
  br label %38

38:                                               ; preds = %60, %37
  %39 = load i32, ptr %21, align 4, !tbaa !54
  %40 = load i32, ptr %14, align 4, !tbaa !54
  %41 = icmp slt i32 %39, %40
  br i1 %41, label %42, label %63

42:                                               ; preds = %38
  %43 = load ptr, ptr %18, align 8, !tbaa !85
  %44 = load i32, ptr %21, align 4, !tbaa !54
  %45 = sext i32 %44 to i64
  %46 = getelementptr inbounds i16, ptr %43, i64 %45
  %47 = load i16, ptr %46, align 2, !tbaa !87
  %48 = zext i16 %47 to i32
  %49 = sitofp i32 %48 to float
  %50 = load float, ptr %16, align 4, !tbaa !46
  %51 = fmul nsz float %49, %50
  %52 = fptosi float %51 to i32
  %53 = load i32, ptr %20, align 4, !tbaa !54
  %54 = call i32 @av_clip_c(i32 noundef %52, i32 noundef 0, i32 noundef %53) #15
  %55 = trunc i32 %54 to i16
  %56 = load ptr, ptr %19, align 8, !tbaa !85
  %57 = load i32, ptr %21, align 4, !tbaa !54
  %58 = sext i32 %57 to i64
  %59 = getelementptr inbounds i16, ptr %56, i64 %58
  store i16 %55, ptr %59, align 2, !tbaa !87
  br label %60

60:                                               ; preds = %42
  %61 = load i32, ptr %21, align 4, !tbaa !54
  %62 = add nsw i32 %61, 1
  store i32 %62, ptr %21, align 4, !tbaa !54
  br label %38, !llvm.loop !88

63:                                               ; preds = %38
  %64 = load i64, ptr %13, align 8, !tbaa !78
  %65 = sdiv i64 %64, 2
  %66 = load ptr, ptr %19, align 8, !tbaa !85
  %67 = getelementptr inbounds i16, ptr %66, i64 %65
  store ptr %67, ptr %19, align 8, !tbaa !85
  %68 = load i64, ptr %11, align 8, !tbaa !78
  %69 = sdiv i64 %68, 2
  %70 = load ptr, ptr %18, align 8, !tbaa !85
  %71 = getelementptr inbounds i16, ptr %70, i64 %69
  store ptr %71, ptr %18, align 8, !tbaa !85
  br label %72

72:                                               ; preds = %63
  %73 = load i32, ptr %22, align 4, !tbaa !54
  %74 = add nsw i32 %73, 1
  store i32 %74, ptr %22, align 4, !tbaa !54
  br label %33, !llvm.loop !89

75:                                               ; preds = %33
  call void @llvm.lifetime.end.p0(i64 4, ptr %22) #13
  call void @llvm.lifetime.end.p0(i64 4, ptr %21) #13
  call void @llvm.lifetime.end.p0(i64 4, ptr %20) #13
  call void @llvm.lifetime.end.p0(i64 8, ptr %19) #13
  call void @llvm.lifetime.end.p0(i64 8, ptr %18) #13
  call void @llvm.lifetime.end.p0(i64 8, ptr %17) #13
  ret i32 0
}