; Function Attrs: nofree norecurse nosync nounwind memory(read, argmem: readwrite, inaccessiblemem: none) uwtable
define internal noundef i32 @deflicker16(ptr noundef readonly captures(none) %0, ptr noundef readonly captures(none) %1, i64 noundef %2, ptr noundef writeonly captures(none) %3, i64 noundef %4, i32 noundef %5, i32 noundef %6, float noundef %7) #9 {
  %9 = getelementptr inbounds nuw i8, ptr %0, i64 72
  %10 = load ptr, ptr %9, align 8, !tbaa !4
  %11 = getelementptr inbounds nuw i8, ptr %10, i64 24
  %12 = load i32, ptr %11, align 8, !tbaa !57
  %notmask = shl nsw i32 -1, %12
  %13 = xor i32 %notmask, -1
  %14 = icmp sgt i32 %6, 0
  br i1 %14, label %.preheader.lr.ph, label %._crit_edge26

.preheader.lr.ph:                                 ; preds = %8
  %15 = icmp sgt i32 %5, 0
  %16 = sdiv i64 %4, 2
  %17 = sdiv i64 %2, 2
  br i1 %15, label %.preheader.us.preheader, label %._crit_edge26

.preheader.us.preheader:                          ; preds = %.preheader.lr.ph
  %wide.trip.count = zext nneg i32 %5 to i64
  br label %.preheader.us

.preheader.us:                                    ; preds = %.preheader.us.preheader, %._crit_edge.us
  %.025.us = phi i32 [ %30, %._crit_edge.us ], [ 0, %.preheader.us.preheader ]
  %.02024.us = phi ptr [ %29, %._crit_edge.us ], [ %1, %.preheader.us.preheader ]
  %.02123.us = phi ptr [ %28, %._crit_edge.us ], [ %3, %.preheader.us.preheader ]
  br label %18

18:                                               ; preds = %.preheader.us, %18
  %indvars.iv = phi i64 [ 0, %.preheader.us ], [ %indvars.iv.next, %18 ]
  %19 = getelementptr inbounds nuw i16, ptr %.02024.us, i64 %indvars.iv
  %20 = load i16, ptr %19, align 2, !tbaa !76
  %21 = uitofp i16 %20 to float
  %22 = fmul nsz float %7, %21
  %23 = fptosi float %22 to i32
  %24 = icmp slt i32 %23, 0
  %..i.us = tail call i32 @llvm.smin.i32(i32 %23, i32 %13)
  %25 = trunc i32 %..i.us to i16
  %26 = select i1 %24, i16 0, i16 %25
  %27 = getelementptr inbounds nuw i16, ptr %.02123.us, i64 %indvars.iv
  store i16 %26, ptr %27, align 2, !tbaa !76
  %indvars.iv.next = add nuw nsw i64 %indvars.iv, 1
  %exitcond.not = icmp eq i64 %indvars.iv.next, %wide.trip.count
  br i1 %exitcond.not, label %._crit_edge.us, label %18, !llvm.loop !77

._crit_edge.us:                                   ; preds = %18
  %28 = getelementptr inbounds i16, ptr %.02123.us, i64 %16
  %29 = getelementptr inbounds i16, ptr %.02024.us, i64 %17
  %30 = add nuw nsw i32 %.025.us, 1
  %exitcond29.not = icmp eq i32 %30, %6
  br i1 %exitcond29.not, label %._crit_edge26, label %.preheader.us, !llvm.loop !78

._crit_edge26:                                    ; preds = %._crit_edge.us, %.preheader.lr.ph, %8
  ret i32 0
}